target datalayout = "e-m:e-p270:32:32-p271:32:32-p272:64:64-i64:64-i128:128-f80:128-n8:16:32:64-S128"
target triple = "x86_64-pc-linux-gnu"

%struct.color_t = type { i16, i16, i16 }
%struct.epan_dissect = type { ptr, ptr, ptr, %struct._packet_info }
%struct._packet_info = type { ptr, ptr, i32, i32, %struct.nstime_t, %struct.nstime_t, %struct.nstime_t, i8, ptr, ptr, ptr, ptr, %struct._address, %struct._address, %struct._address, %struct._address, %struct._address, %struct._address, i32, ptr, i8, [3 x i8], %struct.anon, i32, i32, i32, i32, ptr, i8, ptr, ptr, i16, i16, i32, i32, i16, i32, i32, ptr, ptr, ptr, i8, i8, i16, i16, i16, i32, i16, i16, ptr, ptr, ptr, ptr, ptr, i32, i32 }
%struct.nstime_t = type { i64, i32 }
%struct._address = type { i32, i32, ptr, ptr }
%struct.anon = type { i8, [3 x i8] }
%struct._frame_data = type <{ i32, i32, i32, i32, i32, [4 x i8], i64, ptr, ptr, ptr, i8, i16, [5 x i8], %struct.nstime_t, %struct.nstime_t, i32, i32 }>
%struct._color_filter = type { ptr, ptr, %struct.color_t, %struct.color_t, i8, ptr }
%struct.epan_column_info = type { ptr, i32, ptr, ptr, ptr, %struct.col_expr_t, i8, ptr }
%struct.col_expr_t = type { ptr, ptr }

@.str.10 = private unnamed_addr constant [48 x i8] c"<packet foreground='#%06x' background='#%06x'>\0A\00", align 1
@.str.11 = private unnamed_addr constant [10 x i8] c"<packet>\0A\00", align 1
@.str.12 = private unnamed_addr constant [12 x i8] c"</packet>\0A\0A\00", align 1
@.str.24 = private unnamed_addr constant [10 x i8] c"<section>\00", align 1
@.str.25 = private unnamed_addr constant [12 x i8] c"</section>\0A\00", align 1

; Function Attrs: null_pointer_is_valid sspstrong uwtable
define internal void @print_escaped_xml(ptr noundef %0, ptr noundef %1) #0 {
  %3 = alloca ptr, align 8
  %4 = alloca ptr, align 8
  %5 = alloca ptr, align 8
  %6 = alloca i32, align 4
  store ptr %0, ptr %3, align 8
  store ptr %1, ptr %4, align 8
  call void @llvm.lifetime.start.p0(i64 8, ptr %5) #15
  %7 = load ptr, ptr %3, align 8
  %8 = icmp eq ptr %7, null
  br i1 %8, label %12, label %9

9:                                                ; preds = %2
  %10 = load ptr, ptr %4, align 8
  %11 = icmp eq ptr %10, null
  br i1 %11, label %12, label %13

12:                                               ; preds = %9, %2
  store i32 1, ptr %6, align 4
  br label %20

13:                                               ; preds = %9
  %14 = load ptr, ptr %4, align 8
  %15 = call ptr @xml_escape(ptr noundef %14)
  store ptr %15, ptr %5, align 8
  %16 = load ptr, ptr %5, align 8
  %17 = load ptr, ptr %3, align 8
  %18 = call i32 @fputs(ptr noundef %16, ptr noundef %17)
  %19 = load ptr, ptr %5, align 8
  call void @g_free(ptr noundef %19)
  store i32 0, ptr %6, align 4
  br label %20

20:                                               ; preds = %13, %12
  call void @llvm.lifetime.end.p0(i64 8, ptr %5) #15
  %21 = load i32, ptr %6, align 4
  switch i32 %21, label %23 [
    i32 0, label %22
    i32 1, label %22
  ]

22:                                               ; preds = %20, %20
  ret void

23:                                               ; preds = %20
  unreachable
}

; Function Attrs: inlinehint nounwind null_pointer_is_valid sspstrong uwtable
define internal i32 @color_t_to_rgb(ptr noundef %0) #5 {
  %2 = alloca ptr, align 8
  store ptr %0, ptr %2, align 8
  %3 = load ptr, ptr %2, align 8
  %4 = getelementptr inbounds nuw %struct.color_t, ptr %3, i32 0, i32 0
  %5 = load i16, ptr %4, align 2
  %6 = zext i16 %5 to i32
  %7 = ashr i32 %6, 8
  %8 = shl i32 %7, 16
  %9 = load ptr, ptr %2, align 8
  %10 = getelementptr inbounds nuw %struct.color_t, ptr %9, i32 0, i32 1
  %11 = load i16, ptr %10, align 2
  %12 = zext i16 %11 to i32
  %13 = ashr i32 %12, 8
  %14 = shl i32 %13, 8
  %15 = or i32 %8, %14
  %16 = load ptr, ptr %2, align 8
  %17 = getelementptr inbounds nuw %struct.color_t, ptr %16, i32 0, i32 2
  %18 = load i16, ptr %17, align 2
  %19 = zext i16 %18 to i32
  %20 = ashr i32 %19, 8
  %21 = or i32 %15, %20
  ret i32 %21
}

; Function Attrs: null_pointer_is_valid sspstrong uwtable
define void @write_psml_columns(ptr noundef %0, ptr noundef %1, i1 noundef zeroext %2) #0 {
  %4 = alloca ptr, align 8
  %5 = alloca ptr, align 8
  %6 = alloca i8, align 1
  %7 = alloca i32, align 4
  %8 = alloca ptr, align 8
  store ptr %0, ptr %4, align 8
  store ptr %1, ptr %5, align 8
  %9 = zext i1 %2 to i8
  store i8 %9, ptr %6, align 1
  call void @llvm.lifetime.start.p0(i64 4, ptr %7) #15
  call void @llvm.lifetime.start.p0(i64 8, ptr %8) #15
  %10 = load ptr, ptr %4, align 8
  %11 = getelementptr inbounds nuw %struct.epan_dissect, ptr %10, i32 0, i32 3
  %12 = getelementptr inbounds nuw %struct._packet_info, ptr %11, i32 0, i32 8
  %13 = load ptr, ptr %12, align 8
  %14 = getelementptr inbounds nuw %struct._frame_data, ptr %13, i32 0, i32 9
  %15 = load ptr, ptr %14, align 8
  store ptr %15, ptr %8, align 8
  %16 = load i8, ptr %6, align 1, !range !6, !noundef !7
  %17 = trunc i8 %16 to i1
  br i1 %17, label %18, label %30

18:                                               ; preds = %3
  %19 = load ptr, ptr %8, align 8
  %20 = icmp ne ptr %19, null
  br i1 %20, label %21, label %30

21:                                               ; preds = %18
  %22 = load ptr, ptr %5, align 8
  %23 = load ptr, ptr %8, align 8
  %24 = getelementptr inbounds nuw %struct._color_filter, ptr %23, i32 0, i32 3
  %25 = call i32 @color_t_to_rgb(ptr noundef %24)
  %26 = load ptr, ptr %8, align 8
  %27 = getelementptr inbounds nuw %struct._color_filter, ptr %26, i32 0, i32 2
  %28 = call i32 @color_t_to_rgb(ptr noundef %27)
  %29 = call i32 (ptr, i32, ptr, ...) @__fprintf_chk(ptr noundef %22, i32 noundef 2, ptr noundef @.str.10, i32 noundef %25, i32 noundef %28)
  br label %33

30:                                               ; preds = %18, %3
  %31 = load ptr, ptr %5, align 8
  %32 = call i32 (ptr, i32, ptr, ...) @__fprintf_chk(ptr noundef %31, i32 noundef 2, ptr noundef @.str.11)
  br label %33

33:                                               ; preds = %30, %21
  store i32 0, ptr %7, align 4
  br label %34

34:                                               ; preds = %59, %33
  %35 = load i32, ptr %7, align 4
  %36 = load ptr, ptr %4, align 8
  %37 = getelementptr inbounds nuw %struct.epan_dissect, ptr %36, i32 0, i32 3
  %38 = getelementptr inbounds nuw %struct._packet_info, ptr %37, i32 0, i32 1
  %39 = load ptr, ptr %38, align 8
  %40 = getelementptr inbounds nuw %struct.epan_column_info, ptr %39, i32 0, i32 1
  %41 = load i32, ptr %40, align 8
  %42 = icmp slt i32 %35, %41
  br i1 %42, label %43, label %62

43:                                               ; preds = %34
  %44 = load i32, ptr %7, align 4
  %45 = call zeroext i1 @get_column_visible(i32 noundef %44)
  br i1 %45, label %47, label %46

46:                                               ; preds = %43
  br label %59

47:                                               ; preds = %43
  %48 = load ptr, ptr %5, align 8
  %49 = call i32 (ptr, i32, ptr, ...) @__fprintf_chk(ptr noundef %48, i32 noundef 2, ptr noundef @.str.24)
  %50 = load ptr, ptr %5, align 8
  %51 = load ptr, ptr %4, align 8
  %52 = getelementptr inbounds nuw %struct.epan_dissect, ptr %51, i32 0, i32 3
  %53 = getelementptr inbounds nuw %struct._packet_info, ptr %52, i32 0, i32 1
  %54 = load ptr, ptr %53, align 8
  %55 = load i32, ptr %7, align 4
  %56 = call ptr @get_column_text(ptr noundef %54, i32 noundef %55)
  call void @print_escaped_xml(ptr noundef %50, ptr noundef %56)
  %57 = load ptr, ptr %5, align 8
  %58 = call i32 (ptr, i32, ptr, ...) @__fprintf_chk(ptr noundef %57, i32 noundef 2, ptr noundef @.str.25)
  br label %59

59:                                               ; preds = %47, %46
  %60 = load i32, ptr %7, align 4
  %61 = add i32 %60, 1
  store i32 %61, ptr %7, align 4
  br label %34, !llvm.loop !26

62:                                               ; preds = %34
  %63 = load ptr, ptr %5, align 8
  %64 = call i32 (ptr, i32, ptr, ...) @__fprintf_chk(ptr noundef %63, i32 noundef 2, ptr noundef @.str.12)
  call void @llvm.lifetime.end.p0(i64 8, ptr %8) #15
  call void @llvm.lifetime.end.p0(i64 4, ptr %7) #15
  ret void
}