; Function Attrs: null_pointer_is_valid sspstrong uwtable
define void @write_psml_columns(ptr noundef readonly captures(none) %0, ptr noundef %1, i1 noundef zeroext %2) local_unnamed_addr #0 {
  %4 = getelementptr inbounds nuw i8, ptr %0, i64 104
  %5 = load ptr, ptr %4, align 8
  %6 = getelementptr inbounds nuw i8, ptr %5, i64 48
  %7 = load ptr, ptr %6, align 8
  %8 = icmp ne ptr %7, null
  %or.cond = select i1 %2, i1 %8, i1 false
  br i1 %or.cond, label %9, label %41

9:                                                ; preds = %3
  %10 = getelementptr inbounds nuw i8, ptr %7, i64 22
  %11 = load i16, ptr %10, align 2
  %12 = lshr i16 %11, 8
  %13 = zext nneg i16 %12 to i32
  %14 = shl nuw nsw i32 %13, 16
  %15 = getelementptr inbounds nuw i8, ptr %7, i64 24
  %16 = load i16, ptr %15, align 2
  %17 = and i16 %16, -256
  %18 = zext i16 %17 to i32
  %19 = or disjoint i32 %14, %18
  %20 = getelementptr inbounds nuw i8, ptr %7, i64 26
  %21 = load i16, ptr %20, align 2
  %22 = lshr i16 %21, 8
  %23 = zext nneg i16 %22 to i32
  %24 = or disjoint i32 %19, %23
  %25 = getelementptr inbounds nuw i8, ptr %7, i64 16
  %26 = load i16, ptr %25, align 2
  %27 = lshr i16 %26, 8
  %28 = zext nneg i16 %27 to i32
  %29 = shl nuw nsw i32 %28, 16
  %30 = getelementptr inbounds nuw i8, ptr %7, i64 18
  %31 = load i16, ptr %30, align 2
  %32 = and i16 %31, -256
  %33 = zext i16 %32 to i32
  %34 = or disjoint i32 %29, %33
  %35 = getelementptr inbounds nuw i8, ptr %7, i64 20
  %36 = load i16, ptr %35, align 2
  %37 = lshr i16 %36, 8
  %38 = zext nneg i16 %37 to i32
  %39 = or disjoint i32 %34, %38
  %40 = tail call i32 (ptr, i32, ptr, ...) @__fprintf_chk(ptr noundef %1, i32 noundef 2, ptr noundef nonnull @.str.10, i32 noundef %24, i32 noundef %39)
  br label %43

41:                                               ; preds = %3
  %42 = tail call i32 (ptr, i32, ptr, ...) @__fprintf_chk(ptr noundef %1, i32 noundef 2, ptr noundef nonnull @.str.11)
  br label %43

43:                                               ; preds = %41, %9
  %44 = getelementptr inbounds nuw i8, ptr %0, i64 32
  %45 = load ptr, ptr %44, align 8
  %46 = getelementptr inbounds nuw i8, ptr %45, i64 8
  %47 = load i32, ptr %46, align 8
  %48 = icmp sgt i32 %47, 0
  br i1 %48, label %.lr.ph, label %._crit_edge

.lr.ph:                                           ; preds = %43
  %49 = icmp eq ptr %1, null
  br i1 %49, label %.lr.ph.split.us, label %.lr.ph.split

.lr.ph.split.us:                                  ; preds = %.lr.ph, %55
  %.018.us = phi i32 [ %56, %55 ], [ 0, %.lr.ph ]
  %50 = tail call zeroext i1 @get_column_visible(i32 noundef %.018.us)
  br i1 %50, label %print_escaped_xml.exit.us, label %55

print_escaped_xml.exit.us:                        ; preds = %.lr.ph.split.us
  %51 = tail call i32 (ptr, i32, ptr, ...) @__fprintf_chk(ptr noundef null, i32 noundef 2, ptr noundef nonnull @.str.24)
  %52 = load ptr, ptr %44, align 8
  %53 = tail call ptr @get_column_text(ptr noundef %52, i32 noundef %.018.us)
  %54 = tail call i32 (ptr, i32, ptr, ...) @__fprintf_chk(ptr noundef null, i32 noundef 2, ptr noundef nonnull @.str.25)
  br label %55

55:                                               ; preds = %print_escaped_xml.exit.us, %.lr.ph.split.us
  %56 = add nuw nsw i32 %.018.us, 1
  %57 = load ptr, ptr %44, align 8
  %58 = getelementptr inbounds nuw i8, ptr %57, i64 8
  %59 = load i32, ptr %58, align 8
  %60 = icmp slt i32 %56, %59
  br i1 %60, label %.lr.ph.split.us, label %._crit_edge, !llvm.loop !29

.lr.ph.split:                                     ; preds = %.lr.ph, %71
  %.018 = phi i32 [ %72, %71 ], [ 0, %.lr.ph ]
  %61 = tail call zeroext i1 @get_column_visible(i32 noundef %.018)
  br i1 %61, label %62, label %71

62:                                               ; preds = %.lr.ph.split
  %63 = tail call i32 (ptr, i32, ptr, ...) @__fprintf_chk(ptr noundef nonnull %1, i32 noundef 2, ptr noundef nonnull @.str.24)
  %64 = load ptr, ptr %44, align 8
  %65 = tail call ptr @get_column_text(ptr noundef %64, i32 noundef %.018)
  %66 = icmp eq ptr %65, null
  br i1 %66, label %print_escaped_xml.exit, label %67

67:                                               ; preds = %62
  %68 = tail call ptr @xml_escape(ptr noundef nonnull %65)
  %69 = tail call i32 @fputs(ptr noundef %68, ptr noundef nonnull %1)
  tail call void @g_free(ptr noundef %68)
  br label %print_escaped_xml.exit

print_escaped_xml.exit:                           ; preds = %62, %67
  %70 = tail call i32 (ptr, i32, ptr, ...) @__fprintf_chk(ptr noundef nonnull %1, i32 noundef 2, ptr noundef nonnull @.str.25)
  br label %71

71:                                               ; preds = %.lr.ph.split, %print_escaped_xml.exit
  %72 = add nuw nsw i32 %.018, 1
  %73 = load ptr, ptr %44, align 8
  %74 = getelementptr inbounds nuw i8, ptr %73, i64 8
  %75 = load i32, ptr %74, align 8
  %76 = icmp slt i32 %72, %75
  br i1 %76, label %.lr.ph.split, label %._crit_edge, !llvm.loop !29

._crit_edge:                                      ; preds = %71, %55, %43
  %77 = tail call i32 (ptr, i32, ptr, ...) @__fprintf_chk(ptr noundef %1, i32 noundef 2, ptr noundef nonnull @.str.12)
  ret void
}